; Function Attrs: mustprogress nounwind uwtable
define internal fastcc void @_ZN12_GLOBAL__N_111StmtPrinter22VisitMSPropertyRefExprEPN5clang17MSPropertyRefExprE(ptr noundef nonnull align 8 dereferenceable(80) %0, ptr noundef readonly captures(none) %1) unnamed_addr #0 align 2 {
  %3 = getelementptr inbounds nuw i8, ptr %1, i64 16
  %4 = load ptr, ptr %3, align 8
  %.not.i = icmp eq ptr %4, null
  br i1 %.not.i, label %15, label %5

5:                                                ; preds = %2
  %6 = getelementptr inbounds nuw i8, ptr %0, i64 16
  %7 = load ptr, ptr %6, align 8
  %.not.i14 = icmp eq ptr %7, null
  br i1 %.not.i14, label %14, label %8

8:                                                ; preds = %5
  %9 = load ptr, ptr %0, align 8
  %10 = load ptr, ptr %7, align 8
  %11 = getelementptr inbounds nuw i8, ptr %10, i64 16
  %12 = load ptr, ptr %11, align 8
  %13 = tail call noundef zeroext i1 %12(ptr noundef nonnull align 8 dereferenceable(8) %7, ptr noundef nonnull %4, ptr noundef nonnull align 8 dereferenceable(48) %9) #19
  br i1 %13, label %_ZN12_GLOBAL__N_111StmtPrinter9PrintExprEPN5clang4ExprE.exit, label %14

14:                                               ; preds = %8, %5
  tail call fastcc void @_ZN5clang15StmtVisitorBaseISt11add_pointerN12_GLOBAL__N_111StmtPrinterEvJEE5VisitEPNS_4StmtE(ptr noundef nonnull align 8 dereferenceable(80) %0, ptr noundef nonnull %4)
  br label %_ZN12_GLOBAL__N_111StmtPrinter9PrintExprEPN5clang4ExprE.exit

15:                                               ; preds = %2
  %16 = load ptr, ptr %0, align 8
  %17 = getelementptr inbounds nuw i8, ptr %16, i64 24
  %18 = load ptr, ptr %17, align 8
  %19 = getelementptr inbounds nuw i8, ptr %16, i64 32
  %20 = load ptr, ptr %19, align 8
  %21 = ptrtoint ptr %18 to i64
  %22 = ptrtoint ptr %20 to i64
  %23 = sub i64 %21, %22
  %24 = icmp ult i64 %23, 11
  br i1 %24, label %25, label %27

25:                                               ; preds = %15
  %26 = tail call noundef nonnull align 8 dereferenceable(48) ptr @_ZN4llvm11raw_ostream5writeEPKcm(ptr noundef nonnull align 8 dereferenceable(48) %16, ptr noundef nonnull @.str.4, i64 noundef 11) #19
  br label %_ZN12_GLOBAL__N_111StmtPrinter9PrintExprEPN5clang4ExprE.exit

27:                                               ; preds = %15
  tail call void @llvm.memcpy.p0.p0.i64(ptr noundef nonnull align 1 dereferenceable(11) %20, ptr noundef nonnull align 1 dereferenceable(11) @.str.4, i64 11, i1 false)
  %28 = load ptr, ptr %19, align 8
  %29 = getelementptr inbounds nuw i8, ptr %28, i64 11
  store ptr %29, ptr %19, align 8
  br label %_ZN12_GLOBAL__N_111StmtPrinter9PrintExprEPN5clang4ExprE.exit

_ZN12_GLOBAL__N_111StmtPrinter9PrintExprEPN5clang4ExprE.exit: ; preds = %27, %25, %14, %8
  %30 = getelementptr inbounds nuw i8, ptr %1, i64 36
  %31 = load i8, ptr %30, align 4
  %32 = trunc i8 %31 to i1
  %33 = load ptr, ptr %0, align 8
  %34 = getelementptr inbounds nuw i8, ptr %33, i64 24
  %35 = load ptr, ptr %34, align 8
  %36 = getelementptr inbounds nuw i8, ptr %33, i64 32
  %37 = load ptr, ptr %36, align 8
  br i1 %32, label %38, label %48

38:                                               ; preds = %_ZN12_GLOBAL__N_111StmtPrinter9PrintExprEPN5clang4ExprE.exit
  %39 = ptrtoint ptr %35 to i64
  %40 = ptrtoint ptr %37 to i64
  %41 = sub i64 %39, %40
  %42 = icmp ult i64 %41, 2
  br i1 %42, label %43, label %45

43:                                               ; preds = %38
  %44 = tail call noundef nonnull align 8 dereferenceable(48) ptr @_ZN4llvm11raw_ostream5writeEPKcm(ptr noundef nonnull align 8 dereferenceable(48) %33, ptr noundef nonnull @.str.50, i64 noundef 2) #19
  br label %_ZN4llvm11raw_ostreamlsEPKc.exit

45:                                               ; preds = %38
  store i16 15917, ptr %37, align 1
  %46 = load ptr, ptr %36, align 8
  %47 = getelementptr inbounds nuw i8, ptr %46, i64 2
  store ptr %47, ptr %36, align 8
  br label %_ZN4llvm11raw_ostreamlsEPKc.exit

48:                                               ; preds = %_ZN12_GLOBAL__N_111StmtPrinter9PrintExprEPN5clang4ExprE.exit
  %49 = icmp eq ptr %35, %37
  br i1 %49, label %50, label %52

50:                                               ; preds = %48
  %51 = tail call noundef nonnull align 8 dereferenceable(48) ptr @_ZN4llvm11raw_ostream5writeEPKcm(ptr noundef nonnull align 8 dereferenceable(48) %33, ptr noundef nonnull @.str.51, i64 noundef 1) #19
  br label %_ZN4llvm11raw_ostreamlsEPKc.exit

52:                                               ; preds = %48
  store i8 46, ptr %37, align 1
  %53 = load ptr, ptr %36, align 8
  %54 = getelementptr inbounds nuw i8, ptr %53, i64 1
  store ptr %54, ptr %36, align 8
  br label %_ZN4llvm11raw_ostreamlsEPKc.exit

_ZN4llvm11raw_ostreamlsEPKc.exit:                 ; preds = %52, %50, %45, %43
  %55 = getelementptr inbounds nuw i8, ptr %1, i64 40
  %.sroa.0.0.copyload.i = load ptr, ptr %55, align 8
  %.not = icmp eq ptr %.sroa.0.0.copyload.i, null
  br i1 %.not, label %59, label %56

56:                                               ; preds = %_ZN4llvm11raw_ostreamlsEPKc.exit
  %57 = load ptr, ptr %0, align 8
  %58 = getelementptr inbounds nuw i8, ptr %0, i64 24
  tail call void @_ZNK5clang19NestedNameSpecifier5printERN4llvm11raw_ostreamERKNS_14PrintingPolicyEb(ptr noundef nonnull align 8 dereferenceable(24) %.sroa.0.0.copyload.i, ptr noundef nonnull align 8 dereferenceable(48) %57, ptr noundef nonnull align 8 dereferenceable(16) %58, i1 noundef zeroext false) #19
  br label %59

59:                                               ; preds = %56, %_ZN4llvm11raw_ostreamlsEPKc.exit
  %60 = load ptr, ptr %0, align 8
  %61 = getelementptr inbounds nuw i8, ptr %1, i64 24
  %62 = load ptr, ptr %61, align 8
  %63 = getelementptr inbounds nuw i8, ptr %62, i64 40
  %.sroa.0.0.copyload.i10 = load i64, ptr %63, align 8
  %64 = tail call noundef nonnull align 8 dereferenceable(48) ptr @_ZN5clanglsERN4llvm11raw_ostreamENS_15DeclarationNameE(ptr noundef nonnull align 8 dereferenceable(48) %60, i64 %.sroa.0.0.copyload.i10) #19
  ret void
}